target datalayout = "e-m:e-p270:32:32-p271:32:32-p272:64:64-i64:64-i128:128-f80:128-n8:16:32:64-S128"
target triple = "x86_64-pc-linux-gnu"

%struct.txt_db_st = type { i32, ptr, ptr, ptr, i64, i64, i64, ptr }

; Function Attrs: inlinehint nounwind uwtable
define internal ptr @ossl_check_const_OPENSSL_STRING_lh_plain_type(ptr noundef %0) #3 {
  %2 = alloca ptr, align 8
  store ptr %0, ptr %2, align 8, !tbaa !33
  %3 = load ptr, ptr %2, align 8, !tbaa !33
  ret ptr %3
}

; Function Attrs: inlinehint nounwind uwtable
define internal i32 @sk_OPENSSL_PSTRING_find(ptr noundef %0, ptr noundef %1) #3 {
  %3 = alloca ptr, align 8
  %4 = alloca ptr, align 8
  store ptr %0, ptr %3, align 8, !tbaa !35
  store ptr %1, ptr %4, align 8, !tbaa !33
  %5 = load ptr, ptr %3, align 8, !tbaa !35
  %6 = load ptr, ptr %4, align 8, !tbaa !33
  %7 = call i32 @OPENSSL_sk_find(ptr noundef %5, ptr noundef %6)
  ret i32 %7
}

; Function Attrs: inlinehint nounwind uwtable
define internal ptr @ossl_check_OPENSSL_STRING_lh_plain_type(ptr noundef %0) #3 {
  %2 = alloca ptr, align 8
  store ptr %0, ptr %2, align 8, !tbaa !33
  %3 = load ptr, ptr %2, align 8, !tbaa !33
  ret ptr %3
}

; Function Attrs: inlinehint nounwind uwtable
define internal ptr @ossl_check_OPENSSL_STRING_lh_type(ptr noundef %0) #3 {
  %2 = alloca ptr, align 8
  store ptr %0, ptr %2, align 8, !tbaa !23
  %3 = load ptr, ptr %2, align 8, !tbaa !23
  ret ptr %3
}

; Function Attrs: inlinehint nounwind uwtable
define internal ptr @sk_OPENSSL_PSTRING_value(ptr noundef %0, i32 noundef %1) #3 {
  %3 = alloca ptr, align 8
  %4 = alloca i32, align 4
  store ptr %0, ptr %3, align 8, !tbaa !35
  store i32 %1, ptr %4, align 4, !tbaa !8
  %5 = load ptr, ptr %3, align 8, !tbaa !35
  %6 = load i32, ptr %4, align 4, !tbaa !8
  %7 = call ptr @OPENSSL_sk_value(ptr noundef %5, i32 noundef %6)
  ret ptr %7
}

; Function Attrs: inlinehint nounwind uwtable
define internal i32 @sk_OPENSSL_PSTRING_num(ptr noundef %0) #3 {
  %2 = alloca ptr, align 8
  store ptr %0, ptr %2, align 8, !tbaa !35
  %3 = load ptr, ptr %2, align 8, !tbaa !35
  %4 = call i32 @OPENSSL_sk_num(ptr noundef %3)
  ret i32 %4
}

; Function Attrs: nounwind uwtable
define i32 @TXT_DB_create_index(ptr noundef %0, i32 noundef %1, ptr noundef %2, ptr noundef %3, ptr noundef %4) #0 {
  %6 = alloca i32, align 4
  %7 = alloca ptr, align 8
  %8 = alloca i32, align 4
  %9 = alloca ptr, align 8
  %10 = alloca ptr, align 8
  %11 = alloca ptr, align 8
  %12 = alloca ptr, align 8
  %13 = alloca ptr, align 8
  %14 = alloca ptr, align 8
  %15 = alloca i32, align 4
  %16 = alloca i32, align 4
  %17 = alloca i32, align 4
  store ptr %0, ptr %7, align 8, !tbaa !10
  store i32 %1, ptr %8, align 4, !tbaa !8
  store ptr %2, ptr %9, align 8, !tbaa !25
  store ptr %3, ptr %10, align 8, !tbaa !25
  store ptr %4, ptr %11, align 8, !tbaa !25
  call void @llvm.lifetime.start.p0(i64 8, ptr %12) #5
  call void @llvm.lifetime.start.p0(i64 8, ptr %13) #5
  call void @llvm.lifetime.start.p0(i64 8, ptr %14) #5
  call void @llvm.lifetime.start.p0(i64 4, ptr %15) #5
  call void @llvm.lifetime.start.p0(i64 4, ptr %16) #5
  %18 = load i32, ptr %8, align 4, !tbaa !8
  %19 = load ptr, ptr %7, align 8, !tbaa !10
  %20 = getelementptr inbounds nuw %struct.txt_db_st, ptr %19, i32 0, i32 0
  %21 = load i32, ptr %20, align 8, !tbaa !14
  %22 = icmp sge i32 %18, %21
  br i1 %22, label %23, label %26

23:                                               ; preds = %5
  %24 = load ptr, ptr %7, align 8, !tbaa !10
  %25 = getelementptr inbounds nuw %struct.txt_db_st, ptr %24, i32 0, i32 4
  store i64 3, ptr %25, align 8, !tbaa !34
  store i32 0, ptr %6, align 4
  store i32 1, ptr %17, align 4
  br label %120

26:                                               ; preds = %5
  %27 = load ptr, ptr %10, align 8, !tbaa !25
  %28 = load ptr, ptr %11, align 8, !tbaa !25
  %29 = call ptr @OPENSSL_LH_new(ptr noundef %27, ptr noundef %28)
  store ptr %29, ptr %12, align 8, !tbaa !23
  %30 = icmp eq ptr %29, null
  br i1 %30, label %31, label %34

31:                                               ; preds = %26
  %32 = load ptr, ptr %7, align 8, !tbaa !10
  %33 = getelementptr inbounds nuw %struct.txt_db_st, ptr %32, i32 0, i32 4
  store i64 1, ptr %33, align 8, !tbaa !34
  store i32 0, ptr %6, align 4
  store i32 1, ptr %17, align 4
  br label %120

34:                                               ; preds = %26
  %35 = load ptr, ptr %7, align 8, !tbaa !10
  %36 = getelementptr inbounds nuw %struct.txt_db_st, ptr %35, i32 0, i32 1
  %37 = load ptr, ptr %36, align 8, !tbaa !22
  %38 = call i32 @sk_OPENSSL_PSTRING_num(ptr noundef %37)
  store i32 %38, ptr %16, align 4, !tbaa !8
  store i32 0, ptr %15, align 4, !tbaa !8
  br label %39

39:                                               ; preds = %94, %34
  %40 = load i32, ptr %15, align 4, !tbaa !8
  %41 = load i32, ptr %16, align 4, !tbaa !8
  %42 = icmp slt i32 %40, %41
  br i1 %42, label %43, label %97

43:                                               ; preds = %39
  %44 = load ptr, ptr %7, align 8, !tbaa !10
  %45 = getelementptr inbounds nuw %struct.txt_db_st, ptr %44, i32 0, i32 1
  %46 = load ptr, ptr %45, align 8, !tbaa !22
  %47 = load i32, ptr %15, align 4, !tbaa !8
  %48 = call ptr @sk_OPENSSL_PSTRING_value(ptr noundef %46, i32 noundef %47)
  store ptr %48, ptr %13, align 8, !tbaa !33
  %49 = load ptr, ptr %9, align 8, !tbaa !25
  %50 = icmp ne ptr %49, null
  br i1 %50, label %51, label %57

51:                                               ; preds = %43
  %52 = load ptr, ptr %9, align 8, !tbaa !25
  %53 = load ptr, ptr %13, align 8, !tbaa !33
  %54 = call i32 %52(ptr noundef %53)
  %55 = icmp eq i32 %54, 0
  br i1 %55, label %56, label %57

56:                                               ; preds = %51
  br label %94

57:                                               ; preds = %51, %43
  %58 = load ptr, ptr %12, align 8, !tbaa !23
  %59 = call ptr @ossl_check_OPENSSL_STRING_lh_type(ptr noundef %58)
  %60 = load ptr, ptr %13, align 8, !tbaa !33
  %61 = call ptr @ossl_check_OPENSSL_STRING_lh_plain_type(ptr noundef %60)
  %62 = call ptr @OPENSSL_LH_insert(ptr noundef %59, ptr noundef %61)
  store ptr %62, ptr %14, align 8, !tbaa !33
  %63 = icmp ne ptr %62, null
  br i1 %63, label %64, label %81

64:                                               ; preds = %57
  %65 = load ptr, ptr %7, align 8, !tbaa !10
  %66 = getelementptr inbounds nuw %struct.txt_db_st, ptr %65, i32 0, i32 4
  store i64 2, ptr %66, align 8, !tbaa !34
  %67 = load ptr, ptr %7, align 8, !tbaa !10
  %68 = getelementptr inbounds nuw %struct.txt_db_st, ptr %67, i32 0, i32 1
  %69 = load ptr, ptr %68, align 8, !tbaa !22
  %70 = load ptr, ptr %14, align 8, !tbaa !33
  %71 = call i32 @sk_OPENSSL_PSTRING_find(ptr noundef %69, ptr noundef %70)
  %72 = sext i32 %71 to i64
  %73 = load ptr, ptr %7, align 8, !tbaa !10
  %74 = getelementptr inbounds nuw %struct.txt_db_st, ptr %73, i32 0, i32 5
  store i64 %72, ptr %74, align 8, !tbaa !36
  %75 = load i32, ptr %15, align 4, !tbaa !8
  %76 = sext i32 %75 to i64
  %77 = load ptr, ptr %7, align 8, !tbaa !10
  %78 = getelementptr inbounds nuw %struct.txt_db_st, ptr %77, i32 0, i32 6
  store i64 %76, ptr %78, align 8, !tbaa !37
  %79 = load ptr, ptr %12, align 8, !tbaa !23
  %80 = call ptr @ossl_check_OPENSSL_STRING_lh_type(ptr noundef %79)
  call void @OPENSSL_LH_free(ptr noundef %80)
  store i32 0, ptr %6, align 4
  store i32 1, ptr %17, align 4
  br label %120

81:                                               ; preds = %57
  %82 = load ptr, ptr %12, align 8, !tbaa !23
  %83 = call ptr @ossl_check_OPENSSL_STRING_lh_type(ptr noundef %82)
  %84 = load ptr, ptr %13, align 8, !tbaa !33
  %85 = call ptr @ossl_check_const_OPENSSL_STRING_lh_plain_type(ptr noundef %84)
  %86 = call ptr @OPENSSL_LH_retrieve(ptr noundef %83, ptr noundef %85)
  %87 = icmp eq ptr %86, null
  br i1 %87, label %88, label %93

88:                                               ; preds = %81
  %89 = load ptr, ptr %7, align 8, !tbaa !10
  %90 = getelementptr inbounds nuw %struct.txt_db_st, ptr %89, i32 0, i32 4
  store i64 1, ptr %90, align 8, !tbaa !34
  %91 = load ptr, ptr %12, align 8, !tbaa !23
  %92 = call ptr @ossl_check_OPENSSL_STRING_lh_type(ptr noundef %91)
  call void @OPENSSL_LH_free(ptr noundef %92)
  store i32 0, ptr %6, align 4
  store i32 1, ptr %17, align 4
  br label %120

93:                                               ; preds = %81
  br label %94

94:                                               ; preds = %93, %56
  %95 = load i32, ptr %15, align 4, !tbaa !8
  %96 = add nsw i32 %95, 1
  store i32 %96, ptr %15, align 4, !tbaa !8
  br label %39, !llvm.loop !38

97:                                               ; preds = %39
  %98 = load ptr, ptr %7, align 8, !tbaa !10
  %99 = getelementptr inbounds nuw %struct.txt_db_st, ptr %98, i32 0, i32 2
  %100 = load ptr, ptr %99, align 8, !tbaa !20
  %101 = load i32, ptr %8, align 4, !tbaa !8
  %102 = sext i32 %101 to i64
  %103 = getelementptr inbounds ptr, ptr %100, i64 %102
  %104 = load ptr, ptr %103, align 8, !tbaa !23
  %105 = call ptr @ossl_check_OPENSSL_STRING_lh_type(ptr noundef %104)
  call void @OPENSSL_LH_free(ptr noundef %105)
  %106 = load ptr, ptr %12, align 8, !tbaa !23
  %107 = load ptr, ptr %7, align 8, !tbaa !10
  %108 = getelementptr inbounds nuw %struct.txt_db_st, ptr %107, i32 0, i32 2
  %109 = load ptr, ptr %108, align 8, !tbaa !20
  %110 = load i32, ptr %8, align 4, !tbaa !8
  %111 = sext i32 %110 to i64
  %112 = getelementptr inbounds ptr, ptr %109, i64 %111
  store ptr %106, ptr %112, align 8, !tbaa !23
  %113 = load ptr, ptr %9, align 8, !tbaa !25
  %114 = load ptr, ptr %7, align 8, !tbaa !10
  %115 = getelementptr inbounds nuw %struct.txt_db_st, ptr %114, i32 0, i32 3
  %116 = load ptr, ptr %115, align 8, !tbaa !21
  %117 = load i32, ptr %8, align 4, !tbaa !8
  %118 = sext i32 %117 to i64
  %119 = getelementptr inbounds ptr, ptr %116, i64 %118
  store ptr %113, ptr %119, align 8, !tbaa !25
  store i32 1, ptr %6, align 4
  store i32 1, ptr %17, align 4
  br label %120

120:                                              ; preds = %97, %88, %64, %31, %23
  call void @llvm.lifetime.end.p0(i64 4, ptr %16) #5
  call void @llvm.lifetime.end.p0(i64 4, ptr %15) #5
  call void @llvm.lifetime.end.p0(i64 8, ptr %14) #5
  call void @llvm.lifetime.end.p0(i64 8, ptr %13) #5
  call void @llvm.lifetime.end.p0(i64 8, ptr %12) #5
  %121 = load i32, ptr %6, align 4
  ret i32 %121
}