; Function Attrs: nounwind uwtable
define range(i32 0, 2) i32 @TXT_DB_create_index(ptr noundef captures(none) %0, i32 noundef %1, ptr noundef %2, ptr noundef %3, ptr noundef %4) local_unnamed_addr #0 {
  %6 = load i32, ptr %0, align 8, !tbaa !3
  %.not = icmp slt i32 %1, %6
  br i1 %.not, label %9, label %7

7:                                                ; preds = %5
  %8 = getelementptr inbounds nuw i8, ptr %0, i64 32
  store i64 3, ptr %8, align 8, !tbaa !26
  br label %56

9:                                                ; preds = %5
  %10 = tail call ptr @OPENSSL_LH_new(ptr noundef %3, ptr noundef %4) #5
  %11 = icmp eq ptr %10, null
  br i1 %11, label %12, label %14

12:                                               ; preds = %9
  %13 = getelementptr inbounds nuw i8, ptr %0, i64 32
  store i64 1, ptr %13, align 8, !tbaa !26
  br label %56

14:                                               ; preds = %9
  %15 = getelementptr inbounds nuw i8, ptr %0, i64 8
  %16 = load ptr, ptr %15, align 8, !tbaa !13
  %17 = tail call i32 @OPENSSL_sk_num(ptr noundef %16) #5
  %18 = icmp sgt i32 %17, 0
  br i1 %18, label %.lr.ph, label %._crit_edge

.lr.ph:                                           ; preds = %14
  %.not41 = icmp eq ptr %2, null
  br i1 %.not41, label %.lr.ph.split.us, label %.lr.ph.split

.lr.ph.split.us:                                  ; preds = %.lr.ph, %25
  %.03646.us = phi i32 [ %26, %25 ], [ 0, %.lr.ph ]
  %19 = load ptr, ptr %15, align 8, !tbaa !13
  %20 = tail call ptr @OPENSSL_sk_value(ptr noundef %19, i32 noundef %.03646.us) #5
  %21 = tail call ptr @OPENSSL_LH_insert(ptr noundef nonnull %10, ptr noundef %20) #5
  %.not42.us = icmp eq ptr %21, null
  br i1 %.not42.us, label %22, label %.split.us

22:                                               ; preds = %.lr.ph.split.us
  %23 = tail call ptr @OPENSSL_LH_retrieve(ptr noundef nonnull %10, ptr noundef %20) #5
  %24 = icmp eq ptr %23, null
  br i1 %24, label %.split49.us, label %25

25:                                               ; preds = %22
  %26 = add nuw nsw i32 %.03646.us, 1
  %exitcond61.not = icmp eq i32 %26, %17
  br i1 %exitcond61.not, label %._crit_edge, label %.lr.ph.split.us, !llvm.loop !27

.lr.ph.split:                                     ; preds = %.lr.ph, %44
  %.03646 = phi i32 [ %45, %44 ], [ 0, %.lr.ph ]
  %27 = load ptr, ptr %15, align 8, !tbaa !13
  %28 = tail call ptr @OPENSSL_sk_value(ptr noundef %27, i32 noundef %.03646) #5
  %29 = tail call i32 %2(ptr noundef %28) #5
  %30 = icmp eq i32 %29, 0
  br i1 %30, label %44, label %31

31:                                               ; preds = %.lr.ph.split
  %32 = tail call ptr @OPENSSL_LH_insert(ptr noundef nonnull %10, ptr noundef %28) #5
  %.not42 = icmp eq ptr %32, null
  br i1 %.not42, label %40, label %.split.us

.split.us:                                        ; preds = %31, %.lr.ph.split.us
  %.us-phi = phi ptr [ %21, %.lr.ph.split.us ], [ %32, %31 ]
  %.us-phi47 = phi i32 [ %.03646.us, %.lr.ph.split.us ], [ %.03646, %31 ]
  %33 = getelementptr inbounds nuw i8, ptr %0, i64 32
  store i64 2, ptr %33, align 8, !tbaa !26
  %34 = load ptr, ptr %15, align 8, !tbaa !13
  %35 = tail call i32 @OPENSSL_sk_find(ptr noundef %34, ptr noundef nonnull %.us-phi) #5
  %36 = sext i32 %35 to i64
  %37 = getelementptr inbounds nuw i8, ptr %0, i64 40
  store i64 %36, ptr %37, align 8, !tbaa !28
  %38 = zext nneg i32 %.us-phi47 to i64
  %39 = getelementptr inbounds nuw i8, ptr %0, i64 48
  store i64 %38, ptr %39, align 8, !tbaa !29
  tail call void @OPENSSL_LH_free(ptr noundef nonnull %10) #5
  br label %56

40:                                               ; preds = %31
  %41 = tail call ptr @OPENSSL_LH_retrieve(ptr noundef nonnull %10, ptr noundef %28) #5
  %42 = icmp eq ptr %41, null
  br i1 %42, label %.split49.us, label %44

.split49.us:                                      ; preds = %40, %22
  %43 = getelementptr inbounds nuw i8, ptr %0, i64 32
  store i64 1, ptr %43, align 8, !tbaa !26
  tail call void @OPENSSL_LH_free(ptr noundef nonnull %10) #5
  br label %56

44:                                               ; preds = %40, %.lr.ph.split
  %45 = add nuw nsw i32 %.03646, 1
  %exitcond.not = icmp eq i32 %45, %17
  br i1 %exitcond.not, label %._crit_edge, label %.lr.ph.split, !llvm.loop !27

._crit_edge:                                      ; preds = %44, %25, %14
  %46 = getelementptr inbounds nuw i8, ptr %0, i64 16
  %47 = load ptr, ptr %46, align 8, !tbaa !14
  %48 = sext i32 %1 to i64
  %49 = getelementptr inbounds ptr, ptr %47, i64 %48
  %50 = load ptr, ptr %49, align 8, !tbaa !16
  tail call void @OPENSSL_LH_free(ptr noundef %50) #5
  %51 = load ptr, ptr %46, align 8, !tbaa !14
  %52 = getelementptr inbounds ptr, ptr %51, i64 %48
  store ptr %10, ptr %52, align 8, !tbaa !16
  %53 = getelementptr inbounds nuw i8, ptr %0, i64 24
  %54 = load ptr, ptr %53, align 8, !tbaa !15
  %55 = getelementptr inbounds ptr, ptr %54, i64 %48
  store ptr %2, ptr %55, align 8, !tbaa !18
  br label %56

56:                                               ; preds = %._crit_edge, %.split49.us, %.split.us, %12, %7
  %.0 = phi i32 [ 0, %7 ], [ 0, %12 ], [ 0, %.split.us ], [ 0, %.split49.us ], [ 1, %._crit_edge ]
  ret i32 %.0
}